; Function Attrs: nounwind uwtable
define noundef ptr @l_Lean_Compiler_LCNF_CacheExtension_register___rarg___lambda__1(ptr noundef %0, ptr noundef %1, ptr noundef %2, ptr noundef %3, ptr noundef readonly captures(none) %4, ptr noundef %5, ptr readnone captures(none) %6, ptr noundef %7) local_unnamed_addr #2 {
  %9 = getelementptr inbounds nuw i8, ptr %5, i64 8
  %10 = load ptr, ptr %9, align 8, !tbaa !4
  %11 = ptrtoint ptr %10 to i64
  %12 = and i64 %11, 1
  %.not = icmp eq i64 %12, 0
  br i1 %.not, label %13, label %lean_inc.exit27

13:                                               ; preds = %8
  %.val.i = load i32, ptr %10, align 4, !tbaa !8
  %14 = icmp sgt i32 %.val.i, 0
  br i1 %14, label %15, label %17, !prof !11

15:                                               ; preds = %13
  %16 = add nuw i32 %.val.i, 1
  store i32 %16, ptr %10, align 4, !tbaa !8
  br label %lean_inc.exit27

17:                                               ; preds = %13
  %.not.i32 = icmp eq i32 %.val.i, 0
  br i1 %.not.i32, label %lean_inc.exit27, label %18

18:                                               ; preds = %17
  tail call void @lean_inc_ref_cold(ptr noundef nonnull %10) #6
  br label %lean_inc.exit27

lean_inc.exit27:                                  ; preds = %18, %17, %15, %8
  %19 = tail call ptr @l_List_lengthTRAux___rarg(ptr noundef %10, ptr noundef nonnull inttoptr (i64 1 to ptr)) #6
  %20 = getelementptr inbounds nuw i8, ptr %4, i64 8
  %21 = load ptr, ptr %20, align 8, !tbaa !4
  %22 = tail call ptr @l_List_lengthTRAux___rarg(ptr noundef %21, ptr noundef nonnull inttoptr (i64 1 to ptr)) #6
  %23 = ptrtoint ptr %19 to i64
  %24 = and i64 %23, 1
  %.not36 = icmp eq i64 %24, 0
  %.pre41 = ptrtoint ptr %22 to i64
  %.pre = and i64 %.pre41, 1
  %25 = icmp eq i64 %.pre, 0
  br i1 %.not36, label %lean_nat_sub.exit, label %26, !prof !18

26:                                               ; preds = %lean_inc.exit27
  br i1 %25, label %lean_nat_sub.exit.thread45, label %28, !prof !18

lean_nat_sub.exit.thread45:                       ; preds = %26
  %27 = tail call ptr @lean_nat_big_sub(ptr noundef %19, ptr noundef %22) #6
  br label %38

28:                                               ; preds = %26
  %29 = lshr i64 %23, 1
  %30 = lshr i64 %.pre41, 1
  %31 = icmp samesign ult i64 %29, %30
  br i1 %31, label %lean_dec.exit25, label %32

32:                                               ; preds = %28
  %33 = sub nuw nsw i64 %29, %30
  %34 = shl nuw i64 %33, 1
  %35 = or disjoint i64 %34, 1
  %36 = inttoptr i64 %35 to ptr
  br label %lean_dec.exit25

lean_nat_sub.exit:                                ; preds = %lean_inc.exit27
  %37 = tail call ptr @lean_nat_big_sub(ptr noundef %19, ptr noundef %22) #6
  br i1 %25, label %38, label %lean_dec.exit26.thread

38:                                               ; preds = %lean_nat_sub.exit.thread45, %lean_nat_sub.exit
  %39 = phi ptr [ %27, %lean_nat_sub.exit.thread45 ], [ %37, %lean_nat_sub.exit ]
  %40 = load i32, ptr %22, align 4, !tbaa !8
  %41 = icmp sgt i32 %40, 1
  br i1 %41, label %42, label %44, !prof !11

42:                                               ; preds = %38
  %43 = add nsw i32 %40, -1
  store i32 %43, ptr %22, align 4, !tbaa !8
  br label %lean_dec.exit26

44:                                               ; preds = %38
  %.not.i = icmp eq i32 %40, 0
  br i1 %.not.i, label %lean_dec.exit26, label %45

45:                                               ; preds = %44
  tail call void @lean_dec_ref_cold(ptr noundef nonnull %22) #6
  br label %lean_dec.exit26

lean_dec.exit26:                                  ; preds = %45, %44, %42
  br i1 %.not36, label %lean_dec.exit26.thread, label %lean_dec.exit25

lean_dec.exit26.thread:                           ; preds = %lean_nat_sub.exit, %lean_dec.exit26
  %.1.i4449 = phi ptr [ %39, %lean_dec.exit26 ], [ %37, %lean_nat_sub.exit ]
  %46 = load i32, ptr %19, align 4, !tbaa !8
  %47 = icmp sgt i32 %46, 1
  br i1 %47, label %48, label %50, !prof !11

48:                                               ; preds = %lean_dec.exit26.thread
  %49 = add nsw i32 %46, -1
  store i32 %49, ptr %19, align 4, !tbaa !8
  br label %lean_dec.exit25

50:                                               ; preds = %lean_dec.exit26.thread
  %.not.i28 = icmp eq i32 %46, 0
  br i1 %.not.i28, label %lean_dec.exit25, label %51

51:                                               ; preds = %50
  tail call void @lean_dec_ref_cold(ptr noundef nonnull %19) #6
  br label %lean_dec.exit25

lean_dec.exit25:                                  ; preds = %28, %32, %51, %50, %48, %lean_dec.exit26
  %.1.i4448 = phi ptr [ %.1.i4449, %51 ], [ %.1.i4449, %50 ], [ %.1.i4449, %48 ], [ %39, %lean_dec.exit26 ], [ %36, %32 ], [ inttoptr (i64 1 to ptr), %28 ]
  %52 = tail call ptr @lean_array_mk(ptr noundef %0) #6
  br i1 %.not, label %53, label %lean_inc.exit

53:                                               ; preds = %lean_dec.exit25
  %.val.i33 = load i32, ptr %10, align 4, !tbaa !8
  %54 = icmp sgt i32 %.val.i33, 0
  br i1 %54, label %55, label %57, !prof !11

55:                                               ; preds = %53
  %56 = add nuw i32 %.val.i33, 1
  store i32 %56, ptr %10, align 4, !tbaa !8
  br label %60

57:                                               ; preds = %53
  %.not.i34 = icmp eq i32 %.val.i33, 0
  br i1 %.not.i34, label %60, label %58

58:                                               ; preds = %57
  tail call void @lean_inc_ref_cold(ptr noundef nonnull %10) #6
  br label %60

lean_inc.exit:                                    ; preds = %lean_dec.exit25
  %59 = tail call ptr @l_List_takeTR_go___rarg(ptr noundef %10, ptr noundef %10, ptr noundef %.1.i4448, ptr noundef %52) #6
  br label %lean_dec.exit

60:                                               ; preds = %58, %57, %55
  %61 = tail call ptr @l_List_takeTR_go___rarg(ptr noundef nonnull %10, ptr noundef nonnull %10, ptr noundef %.1.i4448, ptr noundef %52) #6
  %62 = load i32, ptr %10, align 4, !tbaa !8
  %63 = icmp sgt i32 %62, 1
  br i1 %63, label %64, label %66, !prof !11

64:                                               ; preds = %60
  %65 = add nsw i32 %62, -1
  store i32 %65, ptr %10, align 4, !tbaa !8
  br label %lean_dec.exit

66:                                               ; preds = %60
  %.not.i30 = icmp eq i32 %62, 0
  br i1 %.not.i30, label %lean_dec.exit, label %67

67:                                               ; preds = %66
  tail call void @lean_dec_ref_cold(ptr noundef nonnull %10) #6
  br label %lean_dec.exit

lean_dec.exit:                                    ; preds = %67, %66, %64, %lean_inc.exit
  %68 = phi ptr [ %59, %lean_inc.exit ], [ %61, %64 ], [ %61, %66 ], [ %61, %67 ]
  %69 = tail call ptr @l_List_foldl___at_Lean_Compiler_LCNF_CacheExtension_register___spec__1___rarg(ptr noundef %1, ptr noundef %2, ptr noundef %3, ptr noundef nonnull %5, ptr noundef %7, ptr noundef %68)
  ret ptr %69
}